target datalayout = "e-m:e-p270:32:32-p271:32:32-p272:64:64-i64:64-i128:128-f80:128-n8:16:32:64-S128"
target triple = "x86_64-pc-linux-gnu"

%struct.timespec = type { i64, i64 }

@.str = private unnamed_addr constant [54 x i8] c"Finished proceessing %d functions with %d variables. \00", align 1
@.str.1 = private unnamed_addr constant [5 x i8] c"Time\00", align 1
@.str.2 = private unnamed_addr constant [39 x i8] c"Function %3d :  AND2 = %3d  Lev = %3d\0A\00", align 1
@.str.3 = private unnamed_addr constant [5 x i8] c"%s =\00", align 1
@.str.4 = private unnamed_addr constant [11 x i8] c"%9.2f sec\0A\00", align 1

; Function Attrs: inlinehint nounwind willreturn memory(read) uwtable
define available_externally i32 @atoi(ptr noundef nonnull %0) #11 {
  %2 = alloca ptr, align 8
  store ptr %0, ptr %2, align 8, !tbaa !33
  %3 = load ptr, ptr %2, align 8, !tbaa !33
  %4 = call i64 @strtol(ptr noundef %3, ptr noundef null, i32 noundef 10) #13
  %5 = trunc i64 %4 to i32
  ret i32 %5
}

; Function Attrs: inlinehint nounwind uwtable
define internal void @Abc_PrintTime(i32 noundef %0, ptr noundef %1, i64 noundef %2) #7 {
  %4 = alloca i32, align 4
  %5 = alloca ptr, align 8
  %6 = alloca i64, align 8
  store i32 %0, ptr %4, align 4, !tbaa !3
  store ptr %1, ptr %5, align 8, !tbaa !33
  store i64 %2, ptr %6, align 8, !tbaa !36
  %7 = load ptr, ptr %5, align 8, !tbaa !33
  call void (i32, ptr, ...) @Abc_Print(i32 noundef 1, ptr noundef @.str.3, ptr noundef %7)
  %8 = load i64, ptr %6, align 8, !tbaa !36
  %9 = sitofp i64 %8 to double
  %10 = fmul double 1.000000e+00, %9
  %11 = fdiv double %10, 1.000000e+06
  call void (i32, ptr, ...) @Abc_Print(i32 noundef 1, ptr noundef @.str.4, double noundef %11)
  ret void
}

; Function Attrs: inlinehint nounwind uwtable
define internal i32 @Abc_TruthWordNum(i32 noundef %0) #7 {
  %2 = alloca i32, align 4
  store i32 %0, ptr %2, align 4, !tbaa !3
  %3 = load i32, ptr %2, align 4, !tbaa !3
  %4 = icmp sle i32 %3, 5
  br i1 %4, label %5, label %6

5:                                                ; preds = %1
  br label %10

6:                                                ; preds = %1
  %7 = load i32, ptr %2, align 4, !tbaa !3
  %8 = sub nsw i32 %7, 5
  %9 = shl i32 1, %8
  br label %10

10:                                               ; preds = %6, %5
  %11 = phi i32 [ 1, %5 ], [ %9, %6 ]
  ret i32 %11
}

; Function Attrs: nounwind uwtable
define i32 @Kit_TruthFindVarNum(ptr noundef %0) #0 {
  %2 = alloca i32, align 4
  %3 = alloca ptr, align 8
  %4 = alloca i32, align 4
  %5 = alloca i32, align 4
  store ptr %0, ptr %3, align 8, !tbaa !33
  call void @llvm.lifetime.start.p0(i64 4, ptr %4) #13
  store i32 0, ptr %4, align 4, !tbaa !3
  br label %6

6:                                                ; preds = %35, %1
  %7 = load i32, ptr %4, align 4, !tbaa !3
  %8 = load ptr, ptr %3, align 8, !tbaa !33
  %9 = call i64 @strlen(ptr noundef %8) #17
  %10 = trunc i64 %9 to i32
  %11 = icmp slt i32 %7, %10
  br i1 %11, label %12, label %38

12:                                               ; preds = %6
  %13 = load ptr, ptr %3, align 8, !tbaa !33
  %14 = load i32, ptr %4, align 4, !tbaa !3
  %15 = sext i32 %14 to i64
  %16 = getelementptr inbounds i8, ptr %13, i64 %15
  %17 = load i8, ptr %16, align 1, !tbaa !20
  %18 = sext i8 %17 to i32
  %19 = icmp sge i32 %18, 48
  br i1 %19, label %20, label %34

20:                                               ; preds = %12
  %21 = load ptr, ptr %3, align 8, !tbaa !33
  %22 = load i32, ptr %4, align 4, !tbaa !3
  %23 = sext i32 %22 to i64
  %24 = getelementptr inbounds i8, ptr %21, i64 %23
  %25 = load i8, ptr %24, align 1, !tbaa !20
  %26 = sext i8 %25 to i32
  %27 = icmp sle i32 %26, 57
  br i1 %27, label %28, label %34

28:                                               ; preds = %20
  %29 = load ptr, ptr %3, align 8, !tbaa !33
  %30 = load i32, ptr %4, align 4, !tbaa !3
  %31 = sext i32 %30 to i64
  %32 = getelementptr inbounds i8, ptr %29, i64 %31
  %33 = call i32 @atoi(ptr noundef %32) #17
  store i32 %33, ptr %2, align 4
  store i32 1, ptr %5, align 4
  br label %39

34:                                               ; preds = %20, %12
  br label %35

35:                                               ; preds = %34
  %36 = load i32, ptr %4, align 4, !tbaa !3
  %37 = add nsw i32 %36, 1
  store i32 %37, ptr %4, align 4, !tbaa !3
  br label %6, !llvm.loop !35

38:                                               ; preds = %6
  store i32 -1, ptr %2, align 4
  store i32 1, ptr %5, align 4
  br label %39

39:                                               ; preds = %38, %28
  call void @llvm.lifetime.end.p0(i64 4, ptr %4) #13
  %40 = load i32, ptr %2, align 4
  ret i32 %40
}

; Function Attrs: inlinehint nounwind uwtable
define internal i64 @Abc_Clock() #7 {
  %1 = alloca i64, align 8
  %2 = alloca %struct.timespec, align 8
  %3 = alloca i32, align 4
  %4 = alloca i64, align 8
  call void @llvm.lifetime.start.p0(i64 16, ptr %2) #13
  %5 = call i32 @clock_gettime(i32 noundef 1, ptr noundef %2) #13
  %6 = icmp slt i32 %5, 0
  br i1 %6, label %7, label %8

7:                                                ; preds = %0
  store i64 -1, ptr %1, align 8
  store i32 1, ptr %3, align 4
  br label %19

8:                                                ; preds = %0
  call void @llvm.lifetime.start.p0(i64 8, ptr %4) #13
  %9 = getelementptr inbounds nuw %struct.timespec, ptr %2, i32 0, i32 0
  %10 = load i64, ptr %9, align 8, !tbaa !39
  %11 = mul nsw i64 %10, 1000000
  store i64 %11, ptr %4, align 8, !tbaa !36
  %12 = getelementptr inbounds nuw %struct.timespec, ptr %2, i32 0, i32 1
  %13 = load i64, ptr %12, align 8, !tbaa !41
  %14 = mul nsw i64 %13, 1000000
  %15 = sdiv i64 %14, 1000000000
  %16 = load i64, ptr %4, align 8, !tbaa !36
  %17 = add nsw i64 %16, %15
  store i64 %17, ptr %4, align 8, !tbaa !36
  %18 = load i64, ptr %4, align 8, !tbaa !36
  store i64 %18, ptr %1, align 8
  store i32 1, ptr %3, align 4
  call void @llvm.lifetime.end.p0(i64 8, ptr %4) #13
  br label %19

19:                                               ; preds = %8, %7
  call void @llvm.lifetime.end.p0(i64 16, ptr %2) #13
  %20 = load i64, ptr %1, align 8
  ret i64 %20
}

; Function Attrs: nounwind uwtable
define ptr @Kit_TruthTest(ptr noundef %0) #0 {
  %2 = alloca ptr, align 8
  %3 = alloca i64, align 8
  %4 = alloca i32, align 4
  %5 = alloca i32, align 4
  %6 = alloca i32, align 4
  %7 = alloca i32, align 4
  %8 = alloca ptr, align 8
  %9 = alloca ptr, align 8
  store ptr %0, ptr %2, align 8, !tbaa !33
  call void @llvm.lifetime.start.p0(i64 8, ptr %3) #13
  %10 = call i64 @Abc_Clock()
  store i64 %10, ptr %3, align 8, !tbaa !36
  call void @llvm.lifetime.start.p0(i64 4, ptr %4) #13
  call void @llvm.lifetime.start.p0(i64 4, ptr %5) #13
  %11 = load ptr, ptr %2, align 8, !tbaa !33
  %12 = call i32 @Extra_FileSize(ptr noundef %11)
  store i32 %12, ptr %5, align 4, !tbaa !3
  call void @llvm.lifetime.start.p0(i64 4, ptr %6) #13
  %13 = load ptr, ptr %2, align 8, !tbaa !33
  %14 = call i32 @Kit_TruthFindVarNum(ptr noundef %13)
  store i32 %14, ptr %6, align 4, !tbaa !3
  call void @llvm.lifetime.start.p0(i64 4, ptr %7) #13
  %15 = load i32, ptr %5, align 4, !tbaa !3
  %16 = sdiv i32 %15, 4
  %17 = load i32, ptr %6, align 4, !tbaa !3
  %18 = call i32 @Abc_TruthWordNum(i32 noundef %17)
  %19 = sdiv i32 %16, %18
  store i32 %19, ptr %7, align 4, !tbaa !3
  call void @llvm.lifetime.start.p0(i64 8, ptr %8) #13
  %20 = load ptr, ptr %2, align 8, !tbaa !33
  %21 = call ptr @Extra_FileReadContents(ptr noundef %20)
  store ptr %21, ptr %8, align 8, !tbaa !24
  call void @llvm.lifetime.start.p0(i64 8, ptr %9) #13
  %22 = load ptr, ptr %8, align 8, !tbaa !24
  %23 = load i32, ptr %6, align 4, !tbaa !3
  %24 = load i32, ptr %7, align 4, !tbaa !3
  %25 = call ptr @Kit_TruthStatsArray(ptr noundef %22, i32 noundef %23, i32 noundef %24)
  store ptr %25, ptr %9, align 8, !tbaa !24
  %26 = load i32, ptr %7, align 4, !tbaa !3
  %27 = load i32, ptr %6, align 4, !tbaa !3
  %28 = call i32 (ptr, ...) @printf(ptr noundef @.str, i32 noundef %26, i32 noundef %27)
  %29 = call i64 @Abc_Clock()
  %30 = load i64, ptr %3, align 8, !tbaa !36
  %31 = sub nsw i64 %29, %30
  call void @Abc_PrintTime(i32 noundef 1, ptr noundef @.str.1, i64 noundef %31)
  %32 = load ptr, ptr %8, align 8, !tbaa !24
  %33 = icmp ne ptr %32, null
  br i1 %33, label %34, label %36

34:                                               ; preds = %1
  %35 = load ptr, ptr %8, align 8, !tbaa !24
  call void @free(ptr noundef %35) #13
  store ptr null, ptr %8, align 8, !tbaa !24
  br label %37

36:                                               ; preds = %1
  br label %37

37:                                               ; preds = %36, %34
  store i32 0, ptr %4, align 4, !tbaa !3
  br label %38

38:                                               ; preds = %56, %37
  %39 = load i32, ptr %4, align 4, !tbaa !3
  %40 = icmp slt i32 %39, 5
  br i1 %40, label %41, label %59

41:                                               ; preds = %38
  %42 = load i32, ptr %4, align 4, !tbaa !3
  %43 = load ptr, ptr %9, align 8, !tbaa !24
  %44 = load i32, ptr %4, align 4, !tbaa !3
  %45 = sext i32 %44 to i64
  %46 = getelementptr inbounds i32, ptr %43, i64 %45
  %47 = load i32, ptr %46, align 4, !tbaa !3
  %48 = and i32 %47, 65535
  %49 = load ptr, ptr %9, align 8, !tbaa !24
  %50 = load i32, ptr %4, align 4, !tbaa !3
  %51 = sext i32 %50 to i64
  %52 = getelementptr inbounds i32, ptr %49, i64 %51
  %53 = load i32, ptr %52, align 4, !tbaa !3
  %54 = ashr i32 %53, 16
  %55 = call i32 (ptr, ...) @printf(ptr noundef @.str.2, i32 noundef %42, i32 noundef %48, i32 noundef %54)
  br label %56

56:                                               ; preds = %41
  %57 = load i32, ptr %4, align 4, !tbaa !3
  %58 = add nsw i32 %57, 1
  store i32 %58, ptr %4, align 4, !tbaa !3
  br label %38, !llvm.loop !38

59:                                               ; preds = %38
  %60 = load ptr, ptr %9, align 8, !tbaa !24
  call void @llvm.lifetime.end.p0(i64 8, ptr %9) #13
  call void @llvm.lifetime.end.p0(i64 8, ptr %8) #13
  call void @llvm.lifetime.end.p0(i64 4, ptr %7) #13
  call void @llvm.lifetime.end.p0(i64 4, ptr %6) #13
  call void @llvm.lifetime.end.p0(i64 4, ptr %5) #13
  call void @llvm.lifetime.end.p0(i64 4, ptr %4) #13
  call void @llvm.lifetime.end.p0(i64 8, ptr %3) #13
  ret ptr %60
}