; Function Attrs: nounwind uwtable
define noalias noundef ptr @Kit_TruthTest(ptr noundef %0) local_unnamed_addr #8 {
  %2 = alloca %struct.timespec, align 8
  %3 = alloca %struct.timespec, align 8
  call void @llvm.lifetime.start.p0(i64 16, ptr nonnull %3) #21
  %4 = call i32 @clock_gettime(i32 noundef 1, ptr noundef nonnull %3) #21
  %5 = icmp slt i32 %4, 0
  br i1 %5, label %Abc_Clock.exit, label %6

6:                                                ; preds = %1
  %7 = load i64, ptr %3, align 8, !tbaa !27
  %.neg28 = mul i64 %7, -1000000
  %8 = getelementptr inbounds nuw i8, ptr %3, i64 8
  %9 = load i64, ptr %8, align 8, !tbaa !30
  %.neg = sdiv i64 %9, -1000
  %.neg29 = add i64 %.neg, %.neg28
  br label %Abc_Clock.exit

Abc_Clock.exit:                                   ; preds = %1, %6
  %.0.i.neg = phi i64 [ %.neg29, %6 ], [ 1, %1 ]
  call void @llvm.lifetime.end.p0(i64 16, ptr nonnull %3) #21
  %10 = call i32 @Extra_FileSize(ptr noundef %0) #21
  %11 = call i64 @strlen(ptr noundef nonnull readonly dereferenceable(1) %0) #24
  %12 = trunc i64 %11 to i32
  %13 = icmp sgt i32 %12, 0
  br i1 %13, label %.lr.ph.preheader.i, label %Kit_TruthFindVarNum.exit.thread

.lr.ph.preheader.i:                               ; preds = %Abc_Clock.exit
  %wide.trip.count.i = and i64 %11, 2147483647
  br label %.lr.ph.i

14:                                               ; preds = %.lr.ph.i
  %indvars.iv.next.i = add nuw nsw i64 %indvars.iv.i, 1
  %exitcond.not.i = icmp eq i64 %indvars.iv.next.i, %wide.trip.count.i
  br i1 %exitcond.not.i, label %Kit_TruthFindVarNum.exit.thread, label %.lr.ph.i, !llvm.loop !26

.lr.ph.i:                                         ; preds = %14, %.lr.ph.preheader.i
  %indvars.iv.i = phi i64 [ 0, %.lr.ph.preheader.i ], [ %indvars.iv.next.i, %14 ]
  %15 = getelementptr inbounds nuw i8, ptr %0, i64 %indvars.iv.i
  %16 = load i8, ptr %15, align 1, !tbaa !15
  %17 = add i8 %16, -48
  %or.cond.i = icmp ult i8 %17, 10
  br i1 %or.cond.i, label %Kit_TruthFindVarNum.exit, label %14

Kit_TruthFindVarNum.exit:                         ; preds = %.lr.ph.i
  %18 = getelementptr inbounds nuw i8, ptr %0, i64 %indvars.iv.i
  %19 = call i64 @strtol(ptr noundef nonnull readonly captures(none) %18, ptr noundef null, i32 noundef 10) #21
  %.fr27 = freeze i64 %19
  %20 = trunc i64 %.fr27 to i32
  %21 = icmp slt i32 %20, 6
  %22 = add nsw i32 %20, -5
  %23 = shl nuw i32 1, %22
  %spec.select = select i1 %21, i32 1, i32 %23
  br label %Kit_TruthFindVarNum.exit.thread

Kit_TruthFindVarNum.exit.thread:                  ; preds = %14, %Abc_Clock.exit, %Kit_TruthFindVarNum.exit
  %.09.i25 = phi i32 [ %20, %Kit_TruthFindVarNum.exit ], [ -1, %Abc_Clock.exit ], [ -1, %14 ]
  %24 = phi i32 [ %spec.select, %Kit_TruthFindVarNum.exit ], [ 1, %Abc_Clock.exit ], [ 1, %14 ]
  %25 = sdiv i32 %10, 4
  %26 = sdiv i32 %25, %24
  %27 = call ptr @Extra_FileReadContents(ptr noundef nonnull %0) #21
  %28 = call ptr @Kit_TruthStatsArray(ptr noundef %27, i32 noundef %.09.i25, i32 noundef %26)
  %29 = call i32 (ptr, ...) @printf(ptr noundef nonnull dereferenceable(1) @.str, i32 noundef %26, i32 noundef %.09.i25)
  call void @llvm.lifetime.start.p0(i64 16, ptr nonnull %2) #21
  %30 = call i32 @clock_gettime(i32 noundef 1, ptr noundef nonnull %2) #21
  %31 = icmp slt i32 %30, 0
  br i1 %31, label %Abc_Clock.exit22, label %32

32:                                               ; preds = %Kit_TruthFindVarNum.exit.thread
  %33 = load i64, ptr %2, align 8, !tbaa !27
  %34 = mul nsw i64 %33, 1000000
  %35 = getelementptr inbounds nuw i8, ptr %2, i64 8
  %36 = load i64, ptr %35, align 8, !tbaa !30
  %37 = sdiv i64 %36, 1000
  %38 = add nsw i64 %37, %34
  br label %Abc_Clock.exit22

Abc_Clock.exit22:                                 ; preds = %Kit_TruthFindVarNum.exit.thread, %32
  %.0.i21 = phi i64 [ %38, %32 ], [ -1, %Kit_TruthFindVarNum.exit.thread ]
  call void @llvm.lifetime.end.p0(i64 16, ptr nonnull %2) #21
  %39 = add i64 %.0.i21, %.0.i.neg
  call void (i32, ptr, ...) @Abc_Print(i32 poison, ptr noundef nonnull @.str.3, ptr noundef nonnull @.str.1)
  %40 = sitofp i64 %39 to double
  %41 = fdiv double %40, 1.000000e+06
  call void (i32, ptr, ...) @Abc_Print(i32 poison, ptr noundef nonnull @.str.4, double noundef %41)
  %.not = icmp eq ptr %27, null
  br i1 %.not, label %.preheader, label %42

42:                                               ; preds = %Abc_Clock.exit22
  call void @free(ptr noundef nonnull %27) #21
  br label %.preheader

.preheader:                                       ; preds = %Abc_Clock.exit22, %42
  br label %43

43:                                               ; preds = %.preheader, %43
  %indvars.iv = phi i64 [ %indvars.iv.next, %43 ], [ 0, %.preheader ]
  %44 = getelementptr inbounds nuw i32, ptr %28, i64 %indvars.iv
  %45 = load i32, ptr %44, align 4, !tbaa !16
  %46 = and i32 %45, 65535
  %47 = ashr i32 %45, 16
  %48 = trunc nuw nsw i64 %indvars.iv to i32
  %49 = call i32 (ptr, ...) @printf(ptr noundef nonnull dereferenceable(1) @.str.2, i32 noundef %48, i32 noundef %46, i32 noundef %47)
  %indvars.iv.next = add nuw nsw i64 %indvars.iv, 1
  %exitcond.not = icmp eq i64 %indvars.iv.next, 5
  br i1 %exitcond.not, label %50, label %43, !llvm.loop !31

50:                                               ; preds = %43
  ret ptr %28
}